target datalayout = "e-m:e-p270:32:32-p271:32:32-p272:64:64-i64:64-i128:128-f80:128-n8:16:32:64-S128"
target triple = "x86_64-pc-linux-gnu"

%struct.UTrie2 = type { ptr, ptr, ptr, i32, i32, i16, i16, i32, i32, i32, i32, ptr, i32, i8, i8, i16, ptr }
%struct.UTrie2Header = type { i32, i16, i16, i16, i16, i16, i16 }

; Function Attrs: inlinehint mustprogress nounwind uwtable
define internal noundef signext i8 @_ZL9U_FAILURE10UErrorCode(i32 noundef %0) #4 {
  %2 = alloca i32, align 4
  store i32 %0, ptr %2, align 4, !tbaa !36
  %3 = load i32, ptr %2, align 4, !tbaa !36
  %4 = icmp sgt i32 %3, 0
  %5 = zext i1 %4 to i8
  ret i8 %5
}

; Function Attrs: mustprogress uwtable
define ptr @utrie2_openFromSerialized_77(i32 noundef %0, ptr noundef %1, i32 noundef %2, ptr noundef %3, ptr noundef %4) #0 {
  %6 = alloca ptr, align 8
  %7 = alloca i32, align 4
  %8 = alloca ptr, align 8
  %9 = alloca i32, align 4
  %10 = alloca ptr, align 8
  %11 = alloca ptr, align 8
  %12 = alloca ptr, align 8
  %13 = alloca ptr, align 8
  %14 = alloca i32, align 4
  %15 = alloca %struct.UTrie2, align 8
  %16 = alloca ptr, align 8
  %17 = alloca i32, align 4
  store i32 %0, ptr %7, align 4, !tbaa !32
  store ptr %1, ptr %8, align 8, !tbaa !34
  store i32 %2, ptr %9, align 4, !tbaa !8
  store ptr %3, ptr %10, align 8, !tbaa !35
  store ptr %4, ptr %11, align 8, !tbaa !34
  call void @llvm.lifetime.start.p0(i64 8, ptr %12) #8
  call void @llvm.lifetime.start.p0(i64 8, ptr %13) #8
  call void @llvm.lifetime.start.p0(i64 4, ptr %14) #8
  call void @llvm.lifetime.start.p0(i64 80, ptr %15) #8
  call void @llvm.lifetime.start.p0(i64 8, ptr %16) #8
  %18 = load ptr, ptr %11, align 8, !tbaa !34
  %19 = load i32, ptr %18, align 4, !tbaa !36
  %20 = call noundef signext i8 @_ZL9U_FAILURE10UErrorCode(i32 noundef %19)
  %21 = icmp ne i8 %20, 0
  br i1 %21, label %22, label %23

22:                                               ; preds = %5
  store ptr null, ptr %6, align 8
  store i32 1, ptr %17, align 4
  br label %216

23:                                               ; preds = %5
  %24 = load i32, ptr %9, align 4, !tbaa !8
  %25 = icmp sle i32 %24, 0
  br i1 %25, label %37, label %26

26:                                               ; preds = %23
  %27 = load ptr, ptr %8, align 8, !tbaa !34
  %28 = ptrtoint ptr %27 to i64
  %29 = and i64 %28, 3
  %30 = icmp ne i64 %29, 0
  br i1 %30, label %37, label %31

31:                                               ; preds = %26
  %32 = load i32, ptr %7, align 4, !tbaa !32
  %33 = icmp slt i32 %32, 0
  br i1 %33, label %37, label %34

34:                                               ; preds = %31
  %35 = load i32, ptr %7, align 4, !tbaa !32
  %36 = icmp sle i32 2, %35
  br i1 %36, label %37, label %39

37:                                               ; preds = %34, %31, %26, %23
  %38 = load ptr, ptr %11, align 8, !tbaa !34
  store i32 1, ptr %38, align 4, !tbaa !36
  store ptr null, ptr %6, align 8
  store i32 1, ptr %17, align 4
  br label %216

39:                                               ; preds = %34
  %40 = load i32, ptr %9, align 4, !tbaa !8
  %41 = icmp slt i32 %40, 16
  br i1 %41, label %42, label %44

42:                                               ; preds = %39
  %43 = load ptr, ptr %11, align 8, !tbaa !34
  store i32 3, ptr %43, align 4, !tbaa !36
  store ptr null, ptr %6, align 8
  store i32 1, ptr %17, align 4
  br label %216

44:                                               ; preds = %39
  %45 = load ptr, ptr %8, align 8, !tbaa !34
  store ptr %45, ptr %12, align 8, !tbaa !38
  %46 = load ptr, ptr %12, align 8, !tbaa !38
  %47 = getelementptr inbounds nuw %struct.UTrie2Header, ptr %46, i32 0, i32 0
  %48 = load i32, ptr %47, align 4, !tbaa !40
  %49 = icmp ne i32 %48, 1416784178
  br i1 %49, label %50, label %52

50:                                               ; preds = %44
  %51 = load ptr, ptr %11, align 8, !tbaa !34
  store i32 3, ptr %51, align 4, !tbaa !36
  store ptr null, ptr %6, align 8
  store i32 1, ptr %17, align 4
  br label %216

52:                                               ; preds = %44
  %53 = load i32, ptr %7, align 4, !tbaa !32
  %54 = load ptr, ptr %12, align 8, !tbaa !38
  %55 = getelementptr inbounds nuw %struct.UTrie2Header, ptr %54, i32 0, i32 1
  %56 = load i16, ptr %55, align 4, !tbaa !42
  %57 = zext i16 %56 to i32
  %58 = and i32 %57, 15
  %59 = icmp ne i32 %53, %58
  br i1 %59, label %60, label %62

60:                                               ; preds = %52
  %61 = load ptr, ptr %11, align 8, !tbaa !34
  store i32 3, ptr %61, align 4, !tbaa !36
  store ptr null, ptr %6, align 8
  store i32 1, ptr %17, align 4
  br label %216

62:                                               ; preds = %52
  call void @llvm.memset.p0.i64(ptr align 8 %15, i8 0, i64 80, i1 false)
  %63 = load ptr, ptr %12, align 8, !tbaa !38
  %64 = getelementptr inbounds nuw %struct.UTrie2Header, ptr %63, i32 0, i32 2
  %65 = load i16, ptr %64, align 2, !tbaa !43
  %66 = zext i16 %65 to i32
  %67 = getelementptr inbounds nuw %struct.UTrie2, ptr %15, i32 0, i32 3
  store i32 %66, ptr %67, align 8, !tbaa !18
  %68 = load ptr, ptr %12, align 8, !tbaa !38
  %69 = getelementptr inbounds nuw %struct.UTrie2Header, ptr %68, i32 0, i32 3
  %70 = load i16, ptr %69, align 4, !tbaa !44
  %71 = zext i16 %70 to i32
  %72 = shl i32 %71, 2
  %73 = getelementptr inbounds nuw %struct.UTrie2, ptr %15, i32 0, i32 4
  store i32 %72, ptr %73, align 4, !tbaa !45
  %74 = load ptr, ptr %12, align 8, !tbaa !38
  %75 = getelementptr inbounds nuw %struct.UTrie2Header, ptr %74, i32 0, i32 4
  %76 = load i16, ptr %75, align 2, !tbaa !46
  %77 = getelementptr inbounds nuw %struct.UTrie2, ptr %15, i32 0, i32 5
  store i16 %76, ptr %77, align 8, !tbaa !47
  %78 = load ptr, ptr %12, align 8, !tbaa !38
  %79 = getelementptr inbounds nuw %struct.UTrie2Header, ptr %78, i32 0, i32 5
  %80 = load i16, ptr %79, align 4, !tbaa !48
  %81 = getelementptr inbounds nuw %struct.UTrie2, ptr %15, i32 0, i32 6
  store i16 %80, ptr %81, align 2, !tbaa !49
  %82 = load ptr, ptr %12, align 8, !tbaa !38
  %83 = getelementptr inbounds nuw %struct.UTrie2Header, ptr %82, i32 0, i32 6
  %84 = load i16, ptr %83, align 2, !tbaa !50
  %85 = zext i16 %84 to i32
  %86 = shl i32 %85, 11
  %87 = getelementptr inbounds nuw %struct.UTrie2, ptr %15, i32 0, i32 9
  store i32 %86, ptr %87, align 4, !tbaa !19
  %88 = getelementptr inbounds nuw %struct.UTrie2, ptr %15, i32 0, i32 4
  %89 = load i32, ptr %88, align 4, !tbaa !45
  %90 = sub nsw i32 %89, 4
  %91 = getelementptr inbounds nuw %struct.UTrie2, ptr %15, i32 0, i32 10
  store i32 %90, ptr %91, align 8, !tbaa !20
  %92 = load i32, ptr %7, align 4, !tbaa !32
  %93 = icmp eq i32 %92, 0
  br i1 %93, label %94, label %100

94:                                               ; preds = %62
  %95 = getelementptr inbounds nuw %struct.UTrie2, ptr %15, i32 0, i32 3
  %96 = load i32, ptr %95, align 8, !tbaa !18
  %97 = getelementptr inbounds nuw %struct.UTrie2, ptr %15, i32 0, i32 10
  %98 = load i32, ptr %97, align 8, !tbaa !20
  %99 = add nsw i32 %98, %96
  store i32 %99, ptr %97, align 8, !tbaa !20
  br label %100

100:                                              ; preds = %94, %62
  %101 = getelementptr inbounds nuw %struct.UTrie2, ptr %15, i32 0, i32 3
  %102 = load i32, ptr %101, align 8, !tbaa !18
  %103 = mul nsw i32 %102, 2
  %104 = add nsw i32 16, %103
  store i32 %104, ptr %14, align 4, !tbaa !8
  %105 = load i32, ptr %7, align 4, !tbaa !32
  %106 = icmp eq i32 %105, 0
  br i1 %106, label %107, label %113

107:                                              ; preds = %100
  %108 = getelementptr inbounds nuw %struct.UTrie2, ptr %15, i32 0, i32 4
  %109 = load i32, ptr %108, align 4, !tbaa !45
  %110 = mul nsw i32 %109, 2
  %111 = load i32, ptr %14, align 4, !tbaa !8
  %112 = add nsw i32 %111, %110
  store i32 %112, ptr %14, align 4, !tbaa !8
  br label %119

113:                                              ; preds = %100
  %114 = getelementptr inbounds nuw %struct.UTrie2, ptr %15, i32 0, i32 4
  %115 = load i32, ptr %114, align 4, !tbaa !45
  %116 = mul nsw i32 %115, 4
  %117 = load i32, ptr %14, align 4, !tbaa !8
  %118 = add nsw i32 %117, %116
  store i32 %118, ptr %14, align 4, !tbaa !8
  br label %119

119:                                              ; preds = %113, %107
  %120 = load i32, ptr %9, align 4, !tbaa !8
  %121 = load i32, ptr %14, align 4, !tbaa !8
  %122 = icmp slt i32 %120, %121
  br i1 %122, label %123, label %125

123:                                              ; preds = %119
  %124 = load ptr, ptr %11, align 8, !tbaa !34
  store i32 3, ptr %124, align 4, !tbaa !36
  store ptr null, ptr %6, align 8
  store i32 1, ptr %17, align 4
  br label %216

125:                                              ; preds = %119
  %126 = call noalias ptr @uprv_malloc_77(i64 noundef 80) #9
  store ptr %126, ptr %16, align 8, !tbaa !3
  %127 = load ptr, ptr %16, align 8, !tbaa !3
  %128 = icmp eq ptr %127, null
  br i1 %128, label %129, label %131

129:                                              ; preds = %125
  %130 = load ptr, ptr %11, align 8, !tbaa !34
  store i32 7, ptr %130, align 4, !tbaa !36
  store ptr null, ptr %6, align 8
  store i32 1, ptr %17, align 4
  br label %216

131:                                              ; preds = %125
  br label %132

132:                                              ; preds = %131
  %133 = load ptr, ptr %16, align 8, !tbaa !3
  call void @llvm.memcpy.p0.p0.i64(ptr align 8 %133, ptr align 8 %15, i64 80, i1 false)
  br label %134

134:                                              ; preds = %132
  br label %135

135:                                              ; preds = %134
  %136 = load ptr, ptr %8, align 8, !tbaa !34
  %137 = load ptr, ptr %16, align 8, !tbaa !3
  %138 = getelementptr inbounds nuw %struct.UTrie2, ptr %137, i32 0, i32 11
  store ptr %136, ptr %138, align 8, !tbaa !51
  %139 = load i32, ptr %14, align 4, !tbaa !8
  %140 = load ptr, ptr %16, align 8, !tbaa !3
  %141 = getelementptr inbounds nuw %struct.UTrie2, ptr %140, i32 0, i32 12
  store i32 %139, ptr %141, align 8, !tbaa !52
  %142 = load ptr, ptr %16, align 8, !tbaa !3
  %143 = getelementptr inbounds nuw %struct.UTrie2, ptr %142, i32 0, i32 13
  store i8 0, ptr %143, align 4, !tbaa !53
  %144 = load ptr, ptr %12, align 8, !tbaa !38
  %145 = getelementptr inbounds %struct.UTrie2Header, ptr %144, i64 1
  store ptr %145, ptr %13, align 8, !tbaa !54
  %146 = load ptr, ptr %13, align 8, !tbaa !54
  %147 = load ptr, ptr %16, align 8, !tbaa !3
  %148 = getelementptr inbounds nuw %struct.UTrie2, ptr %147, i32 0, i32 0
  store ptr %146, ptr %148, align 8, !tbaa !16
  %149 = load ptr, ptr %16, align 8, !tbaa !3
  %150 = getelementptr inbounds nuw %struct.UTrie2, ptr %149, i32 0, i32 3
  %151 = load i32, ptr %150, align 8, !tbaa !18
  %152 = load ptr, ptr %13, align 8, !tbaa !54
  %153 = sext i32 %151 to i64
  %154 = getelementptr inbounds i16, ptr %152, i64 %153
  store ptr %154, ptr %13, align 8, !tbaa !54
  %155 = load i32, ptr %7, align 4, !tbaa !32
  switch i32 %155, label %206 [
    i32 0, label %156
    i32 1, label %182
  ]

156:                                              ; preds = %135
  %157 = load ptr, ptr %13, align 8, !tbaa !54
  %158 = load ptr, ptr %16, align 8, !tbaa !3
  %159 = getelementptr inbounds nuw %struct.UTrie2, ptr %158, i32 0, i32 1
  store ptr %157, ptr %159, align 8, !tbaa !10
  %160 = load ptr, ptr %16, align 8, !tbaa !3
  %161 = getelementptr inbounds nuw %struct.UTrie2, ptr %160, i32 0, i32 2
  store ptr null, ptr %161, align 8, !tbaa !21
  %162 = load ptr, ptr %16, align 8, !tbaa !3
  %163 = getelementptr inbounds nuw %struct.UTrie2, ptr %162, i32 0, i32 0
  %164 = load ptr, ptr %163, align 8, !tbaa !16
  %165 = load ptr, ptr %16, align 8, !tbaa !3
  %166 = getelementptr inbounds nuw %struct.UTrie2, ptr %165, i32 0, i32 6
  %167 = load i16, ptr %166, align 2, !tbaa !49
  %168 = zext i16 %167 to i64
  %169 = getelementptr inbounds nuw i16, ptr %164, i64 %168
  %170 = load i16, ptr %169, align 2, !tbaa !17
  %171 = zext i16 %170 to i32
  %172 = load ptr, ptr %16, align 8, !tbaa !3
  %173 = getelementptr inbounds nuw %struct.UTrie2, ptr %172, i32 0, i32 7
  store i32 %171, ptr %173, align 4, !tbaa !55
  %174 = load ptr, ptr %16, align 8, !tbaa !3
  %175 = getelementptr inbounds nuw %struct.UTrie2, ptr %174, i32 0, i32 1
  %176 = load ptr, ptr %175, align 8, !tbaa !10
  %177 = getelementptr inbounds nuw i16, ptr %176, i64 128
  %178 = load i16, ptr %177, align 2, !tbaa !17
  %179 = zext i16 %178 to i32
  %180 = load ptr, ptr %16, align 8, !tbaa !3
  %181 = getelementptr inbounds nuw %struct.UTrie2, ptr %180, i32 0, i32 8
  store i32 %179, ptr %181, align 8, !tbaa !22
  br label %208

182:                                              ; preds = %135
  %183 = load ptr, ptr %16, align 8, !tbaa !3
  %184 = getelementptr inbounds nuw %struct.UTrie2, ptr %183, i32 0, i32 1
  store ptr null, ptr %184, align 8, !tbaa !10
  %185 = load ptr, ptr %13, align 8, !tbaa !54
  %186 = load ptr, ptr %16, align 8, !tbaa !3
  %187 = getelementptr inbounds nuw %struct.UTrie2, ptr %186, i32 0, i32 2
  store ptr %185, ptr %187, align 8, !tbaa !21
  %188 = load ptr, ptr %16, align 8, !tbaa !3
  %189 = getelementptr inbounds nuw %struct.UTrie2, ptr %188, i32 0, i32 2
  %190 = load ptr, ptr %189, align 8, !tbaa !21
  %191 = load ptr, ptr %16, align 8, !tbaa !3
  %192 = getelementptr inbounds nuw %struct.UTrie2, ptr %191, i32 0, i32 6
  %193 = load i16, ptr %192, align 2, !tbaa !49
  %194 = zext i16 %193 to i64
  %195 = getelementptr inbounds nuw i32, ptr %190, i64 %194
  %196 = load i32, ptr %195, align 4, !tbaa !8
  %197 = load ptr, ptr %16, align 8, !tbaa !3
  %198 = getelementptr inbounds nuw %struct.UTrie2, ptr %197, i32 0, i32 7
  store i32 %196, ptr %198, align 4, !tbaa !55
  %199 = load ptr, ptr %16, align 8, !tbaa !3
  %200 = getelementptr inbounds nuw %struct.UTrie2, ptr %199, i32 0, i32 2
  %201 = load ptr, ptr %200, align 8, !tbaa !21
  %202 = getelementptr inbounds nuw i32, ptr %201, i64 128
  %203 = load i32, ptr %202, align 4, !tbaa !8
  %204 = load ptr, ptr %16, align 8, !tbaa !3
  %205 = getelementptr inbounds nuw %struct.UTrie2, ptr %204, i32 0, i32 8
  store i32 %203, ptr %205, align 8, !tbaa !22
  br label %208

206:                                              ; preds = %135
  %207 = load ptr, ptr %11, align 8, !tbaa !34
  store i32 3, ptr %207, align 4, !tbaa !36
  store ptr null, ptr %6, align 8
  store i32 1, ptr %17, align 4
  br label %216

208:                                              ; preds = %182, %156
  %209 = load ptr, ptr %10, align 8, !tbaa !35
  %210 = icmp ne ptr %209, null
  br i1 %210, label %211, label %214

211:                                              ; preds = %208
  %212 = load i32, ptr %14, align 4, !tbaa !8
  %213 = load ptr, ptr %10, align 8, !tbaa !35
  store i32 %212, ptr %213, align 4, !tbaa !8
  br label %214

214:                                              ; preds = %211, %208
  %215 = load ptr, ptr %16, align 8, !tbaa !3
  store ptr %215, ptr %6, align 8
  store i32 1, ptr %17, align 4
  br label %216

216:                                              ; preds = %214, %206, %129, %123, %60, %50, %42, %37, %22
  call void @llvm.lifetime.end.p0(i64 8, ptr %16) #8
  call void @llvm.lifetime.end.p0(i64 80, ptr %15) #8
  call void @llvm.lifetime.end.p0(i64 4, ptr %14) #8
  call void @llvm.lifetime.end.p0(i64 8, ptr %13) #8
  call void @llvm.lifetime.end.p0(i64 8, ptr %12) #8
  %217 = load ptr, ptr %6, align 8
  ret ptr %217
}