; Function Attrs: mustprogress uwtable
define noalias noundef ptr @utrie2_openFromSerialized_77(i32 noundef %0, ptr noundef %1, i32 noundef %2, ptr noundef writeonly %3, ptr noundef captures(none) %4) local_unnamed_addr #1 {
  %6 = load i32, ptr %4, align 4, !tbaa !26
  %7 = icmp slt i32 %6, 1
  br i1 %7, label %8, label %79

8:                                                ; preds = %5
  %9 = icmp slt i32 %2, 1
  br i1 %9, label %15, label %10

10:                                               ; preds = %8
  %11 = ptrtoint ptr %1 to i64
  %12 = and i64 %11, 3
  %13 = icmp ne i64 %12, 0
  %14 = icmp ugt i32 %0, 1
  %or.cond3 = or i1 %14, %13
  br i1 %or.cond3, label %15, label %16

15:                                               ; preds = %10, %8
  store i32 1, ptr %4, align 4, !tbaa !26
  br label %79

16:                                               ; preds = %10
  %17 = icmp samesign ult i32 %2, 16
  br i1 %17, label %18, label %19

18:                                               ; preds = %16
  store i32 3, ptr %4, align 4, !tbaa !26
  br label %79

19:                                               ; preds = %16
  %20 = load i32, ptr %1, align 4, !tbaa !28
  %.not79 = icmp eq i32 %20, 1416784178
  br i1 %.not79, label %22, label %21

21:                                               ; preds = %19
  store i32 3, ptr %4, align 4, !tbaa !26
  br label %79

22:                                               ; preds = %19
  %23 = getelementptr inbounds nuw i8, ptr %1, i64 4
  %24 = load i16, ptr %23, align 4, !tbaa !30
  %25 = and i16 %24, 15
  %26 = zext nneg i16 %25 to i32
  %.not80 = icmp eq i32 %0, %26
  br i1 %.not80, label %28, label %27

27:                                               ; preds = %22
  store i32 3, ptr %4, align 4, !tbaa !26
  br label %79

28:                                               ; preds = %22
  %29 = getelementptr inbounds nuw i8, ptr %1, i64 6
  %30 = load i16, ptr %29, align 2, !tbaa !31
  %31 = zext i16 %30 to i32
  %32 = getelementptr inbounds nuw i8, ptr %1, i64 8
  %33 = load i16, ptr %32, align 4, !tbaa !32
  %34 = zext i16 %33 to i32
  %35 = shl nuw nsw i32 %34, 2
  %36 = getelementptr inbounds nuw i8, ptr %1, i64 10
  %37 = load i16, ptr %36, align 2, !tbaa !33
  %38 = getelementptr inbounds nuw i8, ptr %1, i64 12
  %39 = load i16, ptr %38, align 4, !tbaa !34
  %40 = getelementptr inbounds nuw i8, ptr %1, i64 14
  %41 = load i16, ptr %40, align 2, !tbaa !35
  %42 = zext i16 %41 to i32
  %43 = shl nuw nsw i32 %42, 11
  %44 = icmp eq i32 %0, 0
  %45 = add nsw i32 %31, -4
  %46 = select i1 %44, i32 %45, i32 -4
  %spec.select = add nsw i32 %46, %35
  %47 = shl nuw nsw i32 %31, 1
  %48 = add nuw nsw i32 %47, 16
  %.pn.v = select i1 %44, i32 3, i32 4
  %.pn = shl nuw nsw i32 %34, %.pn.v
  %.074 = add nuw nsw i32 %48, %.pn
  %49 = icmp samesign ult i32 %2, %.074
  br i1 %49, label %50, label %51

50:                                               ; preds = %28
  store i32 3, ptr %4, align 4, !tbaa !26
  br label %79

51:                                               ; preds = %28
  %52 = tail call noalias dereferenceable_or_null(80) ptr @uprv_malloc_77(i64 noundef 80) #13
  %53 = icmp eq ptr %52, null
  br i1 %53, label %54, label %55

54:                                               ; preds = %51
  store i32 7, ptr %4, align 4, !tbaa !26
  br label %79

55:                                               ; preds = %51
  %.sroa.4.0..0.4.sroa_idx = getelementptr inbounds nuw i8, ptr %52, i64 24
  store i32 %31, ptr %.sroa.4.0..0.4.sroa_idx, align 8
  %.sroa.7.0..0.4.sroa_idx = getelementptr inbounds nuw i8, ptr %52, i64 28
  store i32 %35, ptr %.sroa.7.0..0.4.sroa_idx, align 4
  %.sroa.11.0..0.4.sroa_idx = getelementptr inbounds nuw i8, ptr %52, i64 32
  store i16 %37, ptr %.sroa.11.0..0.4.sroa_idx, align 8
  %.sroa.12.0..0.4.sroa_idx = getelementptr inbounds nuw i8, ptr %52, i64 34
  store i16 %39, ptr %.sroa.12.0..0.4.sroa_idx, align 2
  %.sroa.13.0..0.4.sroa_idx = getelementptr inbounds nuw i8, ptr %52, i64 36
  %.sroa.1328.0..0.4.sroa_idx = getelementptr inbounds nuw i8, ptr %52, i64 44
  store i32 %43, ptr %.sroa.1328.0..0.4.sroa_idx, align 4
  %.sroa.14.0..0.4.sroa_idx = getelementptr inbounds nuw i8, ptr %52, i64 48
  store i32 %spec.select, ptr %.sroa.14.0..0.4.sroa_idx, align 8
  %.sroa.17.0..0.4.sroa_idx = getelementptr inbounds nuw i8, ptr %52, i64 52
  tail call void @llvm.memset.p0.i64(ptr noundef nonnull align 4 dereferenceable(28) %.sroa.17.0..0.4.sroa_idx, i8 0, i64 28, i1 false)
  %56 = getelementptr inbounds nuw i8, ptr %52, i64 56
  store ptr %1, ptr %56, align 8, !tbaa !36
  %57 = getelementptr inbounds nuw i8, ptr %52, i64 64
  store i32 %.074, ptr %57, align 8, !tbaa !37
  %58 = getelementptr inbounds nuw i8, ptr %1, i64 16
  store ptr %58, ptr %52, align 8, !tbaa !13
  %59 = zext i16 %30 to i64
  %60 = getelementptr inbounds nuw i16, ptr %58, i64 %59
  %trunc = trunc nuw i32 %0 to i1
  %61 = zext i16 %39 to i64
  br i1 %trunc, label %69, label %62

62:                                               ; preds = %55
  %63 = getelementptr inbounds nuw i16, ptr %58, i64 %61
  %64 = load i16, ptr %63, align 2, !tbaa !14
  %65 = zext i16 %64 to i32
  %66 = getelementptr inbounds nuw i8, ptr %60, i64 256
  %67 = load i16, ptr %66, align 2, !tbaa !14
  %68 = zext i16 %67 to i32
  br label %74

69:                                               ; preds = %55
  %70 = getelementptr inbounds nuw i32, ptr %60, i64 %61
  %71 = load i32, ptr %70, align 4, !tbaa !19
  %72 = getelementptr inbounds nuw i8, ptr %60, i64 512
  %73 = load i32, ptr %72, align 4, !tbaa !19
  br label %74

74:                                               ; preds = %69, %62
  %.sink84 = phi ptr [ null, %69 ], [ %60, %62 ]
  %.sink83 = phi ptr [ %60, %69 ], [ null, %62 ]
  %.sink82 = phi i32 [ %71, %69 ], [ %65, %62 ]
  %.sink = phi i32 [ %73, %69 ], [ %68, %62 ]
  %75 = getelementptr inbounds nuw i8, ptr %52, i64 8
  store ptr %.sink84, ptr %75, align 8, !tbaa !3
  %76 = getelementptr inbounds nuw i8, ptr %52, i64 16
  store ptr %.sink83, ptr %76, align 8, !tbaa !18
  store i32 %.sink82, ptr %.sroa.13.0..0.4.sroa_idx, align 4, !tbaa !38
  %77 = getelementptr inbounds nuw i8, ptr %52, i64 40
  store i32 %.sink, ptr %77, align 8, !tbaa !20
  %.not81 = icmp eq ptr %3, null
  br i1 %.not81, label %79, label %78

78:                                               ; preds = %74
  store i32 %.074, ptr %3, align 4, !tbaa !19
  br label %79

79:                                               ; preds = %74, %78, %5, %54, %50, %27, %21, %18, %15
  %.0 = phi ptr [ null, %15 ], [ null, %18 ], [ null, %21 ], [ null, %27 ], [ null, %50 ], [ null, %54 ], [ null, %5 ], [ %52, %78 ], [ %52, %74 ]
  ret ptr %.0
}